; Function Attrs: nounwind uwtable
define zeroext i8 @l_Lean_Meta_Origin_lt(ptr noundef %0, ptr noundef %1) local_unnamed_addr #1 {
  %3 = ptrtoint ptr %0 to i64
  %4 = and i64 %3, 1
  %.not.i30 = icmp eq i64 %4, 0
  br i1 %.not.i30, label %8, label %5

5:                                                ; preds = %2
  %6 = lshr i64 %3, 1
  %7 = trunc i64 %6 to i32
  br label %lean_obj_tag.exit

8:                                                ; preds = %2
  %9 = getelementptr i8, ptr %0, i64 4
  %.val.i = load i32, ptr %9, align 4
  %10 = lshr i32 %.val.i, 24
  br label %lean_obj_tag.exit

lean_obj_tag.exit:                                ; preds = %5, %8
  %.0.i = phi i32 [ %7, %5 ], [ %10, %8 ]
  %11 = icmp eq i32 %.0.i, 0
  %12 = ptrtoint ptr %1 to i64
  %13 = and i64 %12, 1
  %.not.i31 = icmp eq i64 %13, 0
  br i1 %11, label %14, label %37

14:                                               ; preds = %lean_obj_tag.exit
  br i1 %.not.i31, label %18, label %15

15:                                               ; preds = %14
  %16 = lshr i64 %12, 1
  %17 = trunc i64 %16 to i32
  br label %lean_obj_tag.exit34

18:                                               ; preds = %14
  %19 = getelementptr i8, ptr %1, i64 4
  %.val.i33 = load i32, ptr %19, align 4
  %20 = lshr i32 %.val.i33, 24
  br label %lean_obj_tag.exit34

lean_obj_tag.exit34:                              ; preds = %15, %18
  %.0.i32 = phi i32 [ %17, %15 ], [ %20, %18 ]
  %21 = icmp eq i32 %.0.i32, 0
  br i1 %21, label %22, label %lean_dec.exit

22:                                               ; preds = %lean_obj_tag.exit34
  %23 = getelementptr inbounds nuw i8, ptr %0, i64 8
  %24 = load ptr, ptr %23, align 8, !tbaa !9
  %25 = getelementptr inbounds nuw i8, ptr %0, i64 17
  %26 = load i8, ptr %25, align 1, !tbaa !14
  %27 = getelementptr inbounds nuw i8, ptr %1, i64 8
  %28 = load ptr, ptr %27, align 8, !tbaa !9
  %29 = getelementptr inbounds nuw i8, ptr %1, i64 17
  %30 = load i8, ptr %29, align 1, !tbaa !14
  %31 = tail call zeroext i8 @l_Lean_Name_lt(ptr noundef %24, ptr noundef %28) #6
  %32 = icmp eq i8 %31, 0
  br i1 %32, label %33, label %lean_dec.exit

33:                                               ; preds = %22
  %34 = tail call zeroext i8 @lean_name_eq(ptr noundef %24, ptr noundef %28) #6
  %35 = icmp eq i8 %34, 0
  %36 = icmp eq i8 %26, 0
  %. = select i1 %36, i8 %30, i8 0
  %.0 = select i1 %35, i8 0, i8 %.
  br label %lean_dec.exit

37:                                               ; preds = %lean_obj_tag.exit
  br i1 %.not.i31, label %41, label %38

38:                                               ; preds = %37
  %39 = lshr i64 %12, 1
  %40 = trunc i64 %39 to i32
  br label %lean_obj_tag.exit38

41:                                               ; preds = %37
  %42 = getelementptr i8, ptr %1, i64 4
  %.val.i37 = load i32, ptr %42, align 4
  %43 = lshr i32 %.val.i37, 24
  br label %lean_obj_tag.exit38

lean_obj_tag.exit38:                              ; preds = %38, %41
  %.0.i36 = phi i32 [ %40, %38 ], [ %43, %41 ]
  %44 = icmp eq i32 %.0.i36, 0
  br i1 %44, label %lean_dec.exit, label %45

45:                                               ; preds = %lean_obj_tag.exit38
  %46 = getelementptr inbounds nuw i8, ptr %0, i64 8
  %47 = load ptr, ptr %46, align 8, !tbaa !9
  %48 = ptrtoint ptr %47 to i64
  %49 = and i64 %48, 1
  %.not.i39 = icmp eq i64 %49, 0
  br i1 %.not.i39, label %50, label %l_Lean_Meta_Origin_key.exit

50:                                               ; preds = %45
  %.val.i.i = load i32, ptr %47, align 4, !tbaa !4
  %51 = icmp sgt i32 %.val.i.i, 0
  br i1 %51, label %52, label %54, !prof !11

52:                                               ; preds = %50
  %53 = add nuw i32 %.val.i.i, 1
  store i32 %53, ptr %47, align 4, !tbaa !4
  br label %l_Lean_Meta_Origin_key.exit

54:                                               ; preds = %50
  %.not.i.i = icmp eq i32 %.val.i.i, 0
  br i1 %.not.i.i, label %l_Lean_Meta_Origin_key.exit, label %55

55:                                               ; preds = %54
  tail call void @lean_inc_ref_cold(ptr noundef nonnull %47) #6
  br label %l_Lean_Meta_Origin_key.exit

l_Lean_Meta_Origin_key.exit:                      ; preds = %45, %52, %54, %55
  %56 = getelementptr inbounds nuw i8, ptr %1, i64 8
  %57 = load ptr, ptr %56, align 8, !tbaa !9
  %58 = ptrtoint ptr %57 to i64
  %59 = and i64 %58, 1
  %.not.i40 = icmp eq i64 %59, 0
  br i1 %.not.i40, label %60, label %l_Lean_Meta_Origin_key.exit43

60:                                               ; preds = %l_Lean_Meta_Origin_key.exit
  %.val.i.i41 = load i32, ptr %57, align 4, !tbaa !4
  %61 = icmp sgt i32 %.val.i.i41, 0
  br i1 %61, label %62, label %64, !prof !11

62:                                               ; preds = %60
  %63 = add nuw i32 %.val.i.i41, 1
  store i32 %63, ptr %57, align 4, !tbaa !4
  br label %67

64:                                               ; preds = %60
  %.not.i.i42 = icmp eq i32 %.val.i.i41, 0
  br i1 %.not.i.i42, label %67, label %65

65:                                               ; preds = %64
  tail call void @lean_inc_ref_cold(ptr noundef nonnull %57) #6
  br label %67

l_Lean_Meta_Origin_key.exit43:                    ; preds = %l_Lean_Meta_Origin_key.exit
  %66 = tail call zeroext i8 @l_Lean_Name_lt(ptr noundef %47, ptr noundef %57) #6
  br label %lean_dec.exit27

67:                                               ; preds = %62, %64, %65
  %68 = tail call zeroext i8 @l_Lean_Name_lt(ptr noundef %47, ptr noundef nonnull %57) #6
  %69 = load i32, ptr %57, align 4, !tbaa !4
  %70 = icmp sgt i32 %69, 1
  br i1 %70, label %71, label %73, !prof !11

71:                                               ; preds = %67
  %72 = add nsw i32 %69, -1
  store i32 %72, ptr %57, align 4, !tbaa !4
  br label %lean_dec.exit27

73:                                               ; preds = %67
  %.not.i = icmp eq i32 %69, 0
  br i1 %.not.i, label %lean_dec.exit27, label %74

74:                                               ; preds = %73
  tail call void @lean_dec_ref_cold(ptr noundef nonnull %57) #6
  br label %lean_dec.exit27

lean_dec.exit27:                                  ; preds = %74, %73, %71, %l_Lean_Meta_Origin_key.exit43
  %75 = phi i8 [ %66, %l_Lean_Meta_Origin_key.exit43 ], [ %68, %71 ], [ %68, %73 ], [ %68, %74 ]
  br i1 %.not.i39, label %76, label %lean_dec.exit

76:                                               ; preds = %lean_dec.exit27
  %77 = load i32, ptr %47, align 4, !tbaa !4
  %78 = icmp sgt i32 %77, 1
  br i1 %78, label %79, label %81, !prof !11

79:                                               ; preds = %76
  %80 = add nsw i32 %77, -1
  store i32 %80, ptr %47, align 4, !tbaa !4
  br label %lean_dec.exit

81:                                               ; preds = %76
  %.not.i28 = icmp eq i32 %77, 0
  br i1 %.not.i28, label %lean_dec.exit, label %82

82:                                               ; preds = %81
  tail call void @lean_dec_ref_cold(ptr noundef nonnull %47) #6
  br label %lean_dec.exit

lean_dec.exit:                                    ; preds = %lean_dec.exit27, %79, %81, %82, %lean_obj_tag.exit38, %lean_obj_tag.exit34, %33, %22
  %.2 = phi i8 [ %.0, %33 ], [ 1, %22 ], [ 0, %lean_obj_tag.exit34 ], [ 1, %lean_obj_tag.exit38 ], [ %75, %82 ], [ %75, %81 ], [ %75, %79 ], [ %75, %lean_dec.exit27 ]
  ret i8 %.2
}